target datalayout = "e-m:e-p270:32:32-p271:32:32-p272:64:64-i64:64-f80:128-n8:16:32:64-S128"
target triple = "x86_64-pc-linux-gnu"

%struct.student = type { [20 x i8], i32, %struct.student* }

@.str = private unnamed_addr constant [3 x i8] c"%d\00", align 1
@i = common dso_local global i32 0, align 4
@n = common dso_local global i32 0, align 4
@.str.1 = private unnamed_addr constant [6 x i8] c"%s %d\00", align 1
@.str.2 = private unnamed_addr constant [3 x i8] c"%s\00", align 1
@.str.3 = private unnamed_addr constant [2 x i8] c"\0A\00", align 1

; Function Attrs: noinline nounwind uwtable
define dso_local %struct.student* @create() #0 {
  %1 = alloca %struct.student*, align 8
  %2 = alloca %struct.student*, align 8
  %3 = alloca %struct.student*, align 8
  store %struct.student* null, %struct.student** %1, align 8
  %4 = call i32 (i8*, ...) @__isoc99_scanf(i8* getelementptr inbounds ([3 x i8], [3 x i8]* @.str, i64 0, i64 0), i32* @i)
  store i32 0, i32* @n, align 4
  %5 = call noalias i8* @malloc(i64 100) #3
  %6 = bitcast i8* %5 to %struct.student*
  store %struct.student* %6, %struct.student** %3, align 8
  store %struct.student* %6, %struct.student** %2, align 8
  %7 = load %struct.student*, %struct.student** %2, align 8
  %8 = getelementptr inbounds %struct.student, %struct.student* %7, i32 0, i32 0
  %9 = getelementptr inbounds [20 x i8], [20 x i8]* %8, i64 0, i64 0
  %10 = load %struct.student*, %struct.student** %2, align 8
  %11 = getelementptr inbounds %struct.student, %struct.student* %10, i32 0, i32 1
  %12 = call i32 (i8*, ...) @__isoc99_scanf(i8* getelementptr inbounds ([6 x i8], [6 x i8]* @.str.1, i64 0, i64 0), i8* %9, i32* %11)
  br label %13

13:                                               ; preds = %29, %0
  %14 = load i32, i32* @n, align 4
  %15 = load i32, i32* @i, align 4
  %16 = sub nsw i32 %15, 1
  %17 = icmp ne i32 %14, %16
  br i1 %17, label %18, label %39

18:                                               ; preds = %13
  %19 = load i32, i32* @n, align 4
  %20 = add nsw i32 %19, 1
  store i32 %20, i32* @n, align 4
  %21 = load i32, i32* @n, align 4
  %22 = icmp eq i32 %21, 1
  br i1 %22, label %23, label %25

23:                                               ; preds = %18
  %24 = load %struct.student*, %struct.student** %2, align 8
  store %struct.student* %24, %struct.student** %1, align 8
  br label %29

25:                                               ; preds = %18
  %26 = load %struct.student*, %struct.student** %2, align 8
  %27 = load %struct.student*, %struct.student** %3, align 8
  %28 = getelementptr inbounds %struct.student, %struct.student* %27, i32 0, i32 2
  store %struct.student* %26, %struct.student** %28, align 8
  br label %29

29:                                               ; preds = %25, %23
  %30 = load %struct.student*, %struct.student** %2, align 8
  store %struct.student* %30, %struct.student** %3, align 8
  %31 = call noalias i8* @malloc(i64 100) #3
  %32 = bitcast i8* %31 to %struct.student*
  store %struct.student* %32, %struct.student** %2, align 8
  %33 = load %struct.student*, %struct.student** %2, align 8
  %34 = getelementptr inbounds %struct.student, %struct.student* %33, i32 0, i32 0
  %35 = getelementptr inbounds [20 x i8], [20 x i8]* %34, i64 0, i64 0
  %36 = load %struct.student*, %struct.student** %2, align 8
  %37 = getelementptr inbounds %struct.student, %struct.student* %36, i32 0, i32 1
  %38 = call i32 (i8*, ...) @__isoc99_scanf(i8* getelementptr inbounds ([6 x i8], [6 x i8]* @.str.1, i64 0, i64 0), i8* %35, i32* %37)
  br label %13

39:                                               ; preds = %13
  %40 = load %struct.student*, %struct.student** %2, align 8
  %41 = load %struct.student*, %struct.student** %3, align 8
  %42 = getelementptr inbounds %struct.student, %struct.student* %41, i32 0, i32 2
  store %struct.student* %40, %struct.student** %42, align 8
  %43 = load %struct.student*, %struct.student** %2, align 8
  %44 = getelementptr inbounds %struct.student, %struct.student* %43, i32 0, i32 2
  store %struct.student* null, %struct.student** %44, align 8
  %45 = load %struct.student*, %struct.student** %1, align 8
  ret %struct.student* %45
}

; Function Attrs: noinline nounwind uwtable
define dso_local void @paixu(%struct.student* %0) #0 {
  %2 = alloca %struct.student*, align 8
  %3 = alloca %struct.student*, align 8
  %4 = alloca %struct.student*, align 8
  %5 = alloca [20 x i8], align 16
  %6 = alloca i32, align 4
  store %struct.student* %0, %struct.student** %2, align 8
  store i32 1, i32* @n, align 4
  br label %7

7:                                                ; preds = %107, %1
  %8 = load i32, i32* @n, align 4
  %9 = load i32, i32* @i, align 4
  %10 = icmp slt i32 %8, %9
  br i1 %10, label %11, label %110

11:                                               ; preds = %7
  %12 = load %struct.student*, %struct.student** %2, align 8
  store %struct.student* %12, %struct.student** %4, align 8
  %13 = load %struct.student*, %struct.student** %2, align 8
  %14 = getelementptr inbounds %struct.student, %struct.student* %13, i32 0, i32 2
  %15 = load %struct.student*, %struct.student** %14, align 8
  store %struct.student* %15, %struct.student** %3, align 8
  br label %16

16:                                               ; preds = %101, %11
  %17 = load %struct.student*, %struct.student** %3, align 8
  %18 = icmp ne %struct.student* %17, null
  br i1 %18, label %19, label %106

19:                                               ; preds = %16
  %20 = load %struct.student*, %struct.student** %3, align 8
  %21 = getelementptr inbounds %struct.student, %struct.student* %20, i32 0, i32 1
  %22 = load i32, i32* %21, align 4
  %23 = icmp sge i32 %22, 60
  br i1 %23, label %24, label %58

24:                                               ; preds = %19
  %25 = load %struct.student*, %struct.student** %4, align 8
  %26 = getelementptr inbounds %struct.student, %struct.student* %25, i32 0, i32 1
  %27 = load i32, i32* %26, align 4
  %28 = icmp slt i32 %27, 60
  br i1 %28, label %29, label %58

29:                                               ; preds = %24
  %30 = getelementptr inbounds [20 x i8], [20 x i8]* %5, i64 0, i64 0
  %31 = load %struct.student*, %struct.student** %3, align 8
  %32 = getelementptr inbounds %struct.student, %struct.student* %31, i32 0, i32 0
  %33 = getelementptr inbounds [20 x i8], [20 x i8]* %32, i64 0, i64 0
  %34 = call i8* @strcpy(i8* %30, i8* %33) #3
  %35 = load %struct.student*, %struct.student** %3, align 8
  %36 = getelementptr inbounds %struct.student, %struct.student* %35, i32 0, i32 0
  %37 = getelementptr inbounds [20 x i8], [20 x i8]* %36, i64 0, i64 0
  %38 = load %struct.student*, %struct.student** %4, align 8
  %39 = getelementptr inbounds %struct.student, %struct.student* %38, i32 0, i32 0
  %40 = getelementptr inbounds [20 x i8], [20 x i8]* %39, i64 0, i64 0
  %41 = call i8* @strcpy(i8* %37, i8* %40) #3
  %42 = load %struct.student*, %struct.student** %4, align 8
  %43 = getelementptr inbounds %struct.student, %struct.student* %42, i32 0, i32 0
  %44 = getelementptr inbounds [20 x i8], [20 x i8]* %43, i64 0, i64 0
  %45 = getelementptr inbounds [20 x i8], [20 x i8]* %5, i64 0, i64 0
  %46 = call i8* @strcpy(i8* %44, i8* %45) #3
  %47 = load %struct.student*, %struct.student** %3, align 8
  %48 = getelementptr inbounds %struct.student, %struct.student* %47, i32 0, i32 1
  %49 = load i32, i32* %48, align 4
  store i32 %49, i32* %6, align 4
  %50 = load %struct.student*, %struct.student** %4, align 8
  %51 = getelementptr inbounds %struct.student, %struct.student* %50, i32 0, i32 1
  %52 = load i32, i32* %51, align 4
  %53 = load %struct.student*, %struct.student** %3, align 8
  %54 = getelementptr inbounds %struct.student, %struct.student* %53, i32 0, i32 1
  store i32 %52, i32* %54, align 4
  %55 = load i32, i32* %6, align 4
  %56 = load %struct.student*, %struct.student** %4, align 8
  %57 = getelementptr inbounds %struct.student, %struct.student* %56, i32 0, i32 1
  store i32 %55, i32* %57, align 4
  br label %101

58:                                               ; preds = %24, %19
  %59 = load %struct.student*, %struct.student** %3, align 8
  %60 = getelementptr inbounds %struct.student, %struct.student* %59, i32 0, i32 1
  %61 = load i32, i32* %60, align 4
  %62 = load %struct.student*, %struct.student** %4, align 8
  %63 = getelementptr inbounds %struct.student, %struct.student* %62, i32 0, i32 1
  %64 = load i32, i32* %63, align 4
  %65 = icmp sgt i32 %61, %64
  br i1 %65, label %66, label %100

66:                                               ; preds = %58
  %67 = load %struct.student*, %struct.student** %4, align 8
  %68 = getelementptr inbounds %struct.student, %struct.student* %67, i32 0, i32 1
  %69 = load i32, i32* %68, align 4
  %70 = icmp sge i32 %69, 60
  br i1 %70, label %71, label %100

71:                                               ; preds = %66
  %72 = getelementptr inbounds [20 x i8], [20 x i8]* %5, i64 0, i64 0
  %73 = load %struct.student*, %struct.student** %3, align 8
  %74 = getelementptr inbounds %struct.student, %struct.student* %73, i32 0, i32 0
  %75 = getelementptr inbounds [20 x i8], [20 x i8]* %74, i64 0, i64 0
  %76 = call i8* @strcpy(i8* %72, i8* %75) #3
  %77 = load %struct.student*, %struct.student** %3, align 8
  %78 = getelementptr inbounds %struct.student, %struct.student* %77, i32 0, i32 0
  %79 = getelementptr inbounds [20 x i8], [20 x i8]* %78, i64 0, i64 0
  %80 = load %struct.student*, %struct.student** %4, align 8
  %81 = getelementptr inbounds %struct.student, %struct.student* %80, i32 0, i32 0
  %82 = getelementptr inbounds [20 x i8], [20 x i8]* %81, i64 0, i64 0
  %83 = call i8* @strcpy(i8* %79, i8* %82) #3
  %84 = load %struct.student*, %struct.student** %4, align 8
  %85 = getelementptr inbounds %struct.student, %struct.student* %84, i32 0, i32 0
  %86 = getelementptr inbounds [20 x i8], [20 x i8]* %85, i64 0, i64 0
  %87 = getelementptr inbounds [20 x i8], [20 x i8]* %5, i64 0, i64 0
  %88 = call i8* @strcpy(i8* %86, i8* %87) #3
  %89 = load %struct.student*, %struct.student** %3, align 8
  %90 = getelementptr inbounds %struct.student, %struct.student* %89, i32 0, i32 1
  %91 = load i32, i32* %90, align 4
  store i32 %91, i32* %6, align 4
  %92 = load %struct.student*, %struct.student** %4, align 8
  %93 = getelementptr inbounds %struct.student, %struct.student* %92, i32 0, i32 1
  %94 = load i32, i32* %93, align 4
  %95 = load %struct.student*, %struct.student** %3, align 8
  %96 = getelementptr inbounds %struct.student, %struct.student* %95, i32 0, i32 1
  store i32 %94, i32* %96, align 4
  %97 = load i32, i32* %6, align 4
  %98 = load %struct.student*, %struct.student** %4, align 8
  %99 = getelementptr inbounds %struct.student, %struct.student* %98, i32 0, i32 1
  store i32 %97, i32* %99, align 4
  br label %100

100:                                              ; preds = %71, %66, %58
  br label %101

101:                                              ; preds = %100, %29
  %102 = load %struct.student*, %struct.student** %3, align 8
  store %struct.student* %102, %struct.student** %4, align 8
  %103 = load %struct.student*, %struct.student** %3, align 8
  %104 = getelementptr inbounds %struct.student, %struct.student* %103, i32 0, i32 2
  %105 = load %struct.student*, %struct.student** %104, align 8
  store %struct.student* %105, %struct.student** %3, align 8
  br label %16

106:                                              ; preds = %16
  br label %107

107:                                              ; preds = %106
  %108 = load i32, i32* @n, align 4
  %109 = add nsw i32 %108, 1
  store i32 %109, i32* @n, align 4
  br label %7

110:                                              ; preds = %7
  ret void
}

; Function Attrs: noinline nounwind uwtable
define dso_local void @print(%struct.student* %0) #0 {
  %2 = alloca %struct.student*, align 8
  store %struct.student* %0, %struct.student** %2, align 8
  br label %3

3:                                                ; preds = %18, %1
  %4 = load %struct.student*, %struct.student** %2, align 8
  %5 = icmp ne %struct.student* %4, null
  br i1 %5, label %6, label %19

6:                                                ; preds = %3
  %7 = load %struct.student*, %struct.student** %2, align 8
  %8 = getelementptr inbounds %struct.student, %struct.student* %7, i32 0, i32 0
  %9 = getelementptr inbounds [20 x i8], [20 x i8]* %8, i64 0, i64 0
  %10 = call i32 (i8*, ...) @printf(i8* getelementptr inbounds ([3 x i8], [3 x i8]* @.str.2, i64 0, i64 0), i8* %9)
  %11 = load %struct.student*, %struct.student** %2, align 8
  %12 = getelementptr inbounds %struct.student, %struct.student* %11, i32 0, i32 2
  %13 = load %struct.student*, %struct.student** %12, align 8
  store %struct.student* %13, %struct.student** %2, align 8
  %14 = load %struct.student*, %struct.student** %2, align 8
  %15 = icmp ne %struct.student* %14, null
  br i1 %15, label %16, label %18

16:                                               ; preds = %6
  %17 = call i32 (i8*, ...) @printf(i8* getelementptr inbounds ([2 x i8], [2 x i8]* @.str.3, i64 0, i64 0))
  br label %18

18:                                               ; preds = %16, %6
  br label %3

19:                                               ; preds = %3
  ret void
}

; Function Attrs: noinline nounwind uwtable
define dso_local void @main() #0 {
  %1 = alloca %struct.student*, align 8
  %2 = call %struct.student* @create()
  store %struct.student* %2, %struct.student** %1, align 8
  %3 = load %struct.student*, %struct.student** %1, align 8
  call void @paixu(%struct.student* %3)
  %4 = load %struct.student*, %struct.student** %1, align 8
  call void @print(%struct.student* %4)
  ret void
}